target datalayout = "e-m:e-p270:32:32-p271:32:32-p272:64:64-i64:64-i128:128-f80:128-n8:16:32:64-S128"
target triple = "x86_64-pc-linux-gnu"

%union.PJ_COORD = type { [4 x double] }
%"class.std::__cxx11::basic_string" = type { %"struct.std::__cxx11::basic_string<char>::_Alloc_hider", i64, %union.anon }
%"struct.std::__cxx11::basic_string<char>::_Alloc_hider" = type { ptr }
%union.anon = type { i64, [8 x i8] }
%"struct.std::_Vector_base" = type { %"struct.std::_Vector_base<PJCoordOperation, std::allocator<PJCoordOperation>>::_Vector_impl" }
%"struct.std::_Vector_base<PJCoordOperation, std::allocator<PJCoordOperation>>::_Vector_impl" = type { %"struct.std::_Vector_base<PJCoordOperation, std::allocator<PJCoordOperation>>::_Vector_impl_data" }
%"struct.std::_Vector_base<PJCoordOperation, std::allocator<PJCoordOperation>>::_Vector_impl_data" = type { ptr, ptr, ptr }
%struct.PJconsts = type { ptr, ptr, ptr, ptr, ptr, ptr, ptr, ptr, ptr, ptr, ptr, ptr, i32, ptr, ptr, ptr, ptr, ptr, ptr, ptr, ptr, double, double, double, double, double, double, double, double, double, double, double, double, double, double, double, double, double, double, double, double, double, double, i32, i32, i32, i32, i32, i32, i32, i32, i32, i32, i32, ptr, ptr, ptr, ptr, ptr, ptr, double, double, double, double, double, double, double, double, double, double, double, i32, [7 x double], i32, ptr, ptr, double, double, i32, [4 x i8], %"class.std::shared_ptr", i8, double, i8, %"class.std::__cxx11::basic_string", %"class.std::__cxx11::basic_string", %"class.std::__cxx11::basic_string", i8, %"class.std::vector.3", i32, %"class.std::vector", i32, i8, i8, i8, ptr }
%"class.std::shared_ptr" = type { %"class.std::__shared_ptr" }
%"class.std::__shared_ptr" = type { ptr, %"class.std::__shared_count" }
%"class.std::__shared_count" = type { ptr }
%"class.std::vector.3" = type { %"struct.std::_Vector_base.4" }
%"struct.std::_Vector_base.4" = type { %"struct.std::_Vector_base<osgeo::proj::operation::GridDescription, std::allocator<osgeo::proj::operation::GridDescription>>::_Vector_impl" }
%"struct.std::_Vector_base<osgeo::proj::operation::GridDescription, std::allocator<osgeo::proj::operation::GridDescription>>::_Vector_impl" = type { %"struct.std::_Vector_base<osgeo::proj::operation::GridDescription, std::allocator<osgeo::proj::operation::GridDescription>>::_Vector_impl_data" }
%"struct.std::_Vector_base<osgeo::proj::operation::GridDescription, std::allocator<osgeo::proj::operation::GridDescription>>::_Vector_impl_data" = type { ptr, ptr, ptr }
%"class.std::vector" = type { %"struct.std::_Vector_base" }

; Function Attrs: mustprogress uwtable
define i32 @proj_trans_array(ptr noundef %0, i32 noundef %1, i64 noundef %2, ptr noundef %3) #0 {
  %5 = alloca ptr, align 8
  %6 = alloca i32, align 4
  %7 = alloca i64, align 8
  %8 = alloca ptr, align 8
  %9 = alloca i64, align 8
  %10 = alloca i32, align 4
  %11 = alloca i8, align 1
  %12 = alloca i8, align 1
  %13 = alloca %union.PJ_COORD, align 8
  %14 = alloca %union.PJ_COORD, align 8
  %15 = alloca i32, align 4
  store ptr %0, ptr %5, align 8, !tbaa !58
  store i32 %1, ptr %6, align 4, !tbaa !14
  store i64 %2, ptr %7, align 8, !tbaa !56
  store ptr %3, ptr %8, align 8, !tbaa !135
  call void @llvm.lifetime.start.p0(i64 8, ptr %9) #19
  call void @llvm.lifetime.start.p0(i64 4, ptr %10) #19
  store i32 0, ptr %10, align 4, !tbaa !16
  call void @llvm.lifetime.start.p0(i64 1, ptr %11) #19
  store i8 0, ptr %11, align 1, !tbaa !12
  call void @llvm.lifetime.start.p0(i64 1, ptr %12) #19
  store i8 1, ptr %12, align 1, !tbaa !12
  store i64 0, ptr %9, align 8, !tbaa !56
  br label %16

16:                                               ; preds = %52, %4
  %17 = load i64, ptr %9, align 8, !tbaa !56
  %18 = load i64, ptr %7, align 8, !tbaa !56
  %19 = icmp ult i64 %17, %18
  br i1 %19, label %20, label %55

20:                                               ; preds = %16
  %21 = load ptr, ptr %5, align 8, !tbaa !58
  %22 = getelementptr inbounds nuw %struct.PJconsts, ptr %21, i32 0, i32 0
  %23 = load ptr, ptr %22, align 8, !tbaa !59
  call void @_Z22proj_context_errno_setP6pj_ctxi(ptr noundef %23, i32 noundef 0)
  call void @llvm.lifetime.start.p0(i64 32, ptr %13) #19
  %24 = load ptr, ptr %5, align 8, !tbaa !58
  %25 = load i32, ptr %6, align 4, !tbaa !14
  %26 = load ptr, ptr %8, align 8, !tbaa !135
  %27 = load i64, ptr %9, align 8, !tbaa !56
  %28 = getelementptr inbounds nuw %union.PJ_COORD, ptr %26, i64 %27
  call void @llvm.memcpy.p0.p0.i64(ptr align 8 %14, ptr align 8 %28, i64 32, i1 false), !tbaa.struct !33
  call void @proj_trans(ptr dead_on_unwind writable sret(%union.PJ_COORD) align 8 %13, ptr noundef %24, i32 noundef %25, ptr noundef byval(%union.PJ_COORD) align 8 %14)
  %29 = load ptr, ptr %8, align 8, !tbaa !135
  %30 = load i64, ptr %9, align 8, !tbaa !56
  %31 = getelementptr inbounds nuw %union.PJ_COORD, ptr %29, i64 %30
  call void @llvm.memcpy.p0.p0.i64(ptr align 8 %31, ptr align 8 %13, i64 32, i1 false), !tbaa.struct !33
  call void @llvm.lifetime.end.p0(i64 32, ptr %13) #19
  call void @llvm.lifetime.start.p0(i64 4, ptr %15) #19
  %32 = load ptr, ptr %5, align 8, !tbaa !58
  %33 = call i32 @proj_errno(ptr noundef %32)
  store i32 %33, ptr %15, align 4, !tbaa !16
  %34 = load i32, ptr %15, align 4, !tbaa !16
  %35 = icmp ne i32 %34, 0
  br i1 %35, label %36, label %51

36:                                               ; preds = %20
  %37 = load i8, ptr %11, align 1, !tbaa !12, !range !36, !noundef !37
  %38 = trunc i8 %37 to i1
  br i1 %38, label %41, label %39

39:                                               ; preds = %36
  %40 = load i32, ptr %15, align 4, !tbaa !16
  store i32 %40, ptr %10, align 4, !tbaa !16
  store i8 1, ptr %11, align 1, !tbaa !12
  br label %50

41:                                               ; preds = %36
  %42 = load i8, ptr %12, align 1, !tbaa !12, !range !36, !noundef !37
  %43 = trunc i8 %42 to i1
  br i1 %43, label %44, label %49

44:                                               ; preds = %41
  %45 = load i32, ptr %10, align 4, !tbaa !16
  %46 = load i32, ptr %15, align 4, !tbaa !16
  %47 = icmp ne i32 %45, %46
  br i1 %47, label %48, label %49

48:                                               ; preds = %44
  store i8 0, ptr %12, align 1, !tbaa !12
  store i32 2048, ptr %10, align 4, !tbaa !16
  br label %49

49:                                               ; preds = %48, %44, %41
  br label %50

50:                                               ; preds = %49, %39
  br label %51

51:                                               ; preds = %50, %20
  call void @llvm.lifetime.end.p0(i64 4, ptr %15) #19
  br label %52

52:                                               ; preds = %51
  %53 = load i64, ptr %9, align 8, !tbaa !56
  %54 = add i64 %53, 1
  store i64 %54, ptr %9, align 8, !tbaa !56
  br label %16, !llvm.loop !137

55:                                               ; preds = %16
  %56 = load ptr, ptr %5, align 8, !tbaa !58
  %57 = getelementptr inbounds nuw %struct.PJconsts, ptr %56, i32 0, i32 0
  %58 = load ptr, ptr %57, align 8, !tbaa !59
  %59 = load i32, ptr %10, align 4, !tbaa !16
  call void @_Z22proj_context_errno_setP6pj_ctxi(ptr noundef %58, i32 noundef %59)
  %60 = load i32, ptr %10, align 4, !tbaa !16
  call void @llvm.lifetime.end.p0(i64 1, ptr %12) #19
  call void @llvm.lifetime.end.p0(i64 1, ptr %11) #19
  call void @llvm.lifetime.end.p0(i64 4, ptr %10) #19
  call void @llvm.lifetime.end.p0(i64 8, ptr %9) #19
  ret i32 %60
}