; Function Attrs: mustprogress uwtable
define noundef i32 @proj_trans_array(ptr noundef %0, i32 noundef %1, i64 noundef %2, ptr noundef captures(none) %3) local_unnamed_addr #0 {
  %5 = alloca %union.PJ_COORD, align 8
  %.not32 = icmp eq i64 %2, 0
  br i1 %.not32, label %._crit_edge, label %.lr.ph

.lr.ph:                                           ; preds = %4, %.lr.ph
  %.031 = phi i64 [ %9, %.lr.ph ], [ 0, %4 ]
  %.01930 = phi i1 [ %.1, %.lr.ph ], [ true, %4 ]
  %.02029 = phi i1 [ %.121, %.lr.ph ], [ false, %4 ]
  %.02228 = phi i32 [ %.123, %.lr.ph ], [ 0, %4 ]
  %6 = load ptr, ptr %0, align 8, !tbaa !49
  call void @_Z22proj_context_errno_setP6pj_ctxi(ptr noundef %6, i32 noundef 0)
  call void @llvm.lifetime.start.p0(i64 32, ptr nonnull %5) #18
  %7 = getelementptr inbounds nuw %union.PJ_COORD, ptr %3, i64 %.031
  call void @proj_trans(ptr dead_on_unwind nonnull writable sret(%union.PJ_COORD) align 8 %5, ptr noundef nonnull %0, i32 noundef %1, ptr noundef nonnull byval(%union.PJ_COORD) align 8 %7)
  call void @llvm.memcpy.p0.p0.i64(ptr noundef nonnull align 8 dereferenceable(32) %7, ptr noundef nonnull align 8 dereferenceable(32) %5, i64 32, i1 false), !tbaa.struct !25
  call void @llvm.lifetime.end.p0(i64 32, ptr nonnull %5) #18
  %8 = call i32 @proj_errno(ptr noundef nonnull %0)
  %.not = icmp ne i32 %8, 0
  %brmerge.not = select i1 %.not, i1 %.02029, i1 false
  %.not25 = icmp ne i32 %.02228, %8
  %or.cond.not = select i1 %.01930, i1 %.not25, i1 false
  %spec.select = select i1 %or.cond.not, i32 2048, i32 %.02228
  %.022.mux = select i1 %.02029, i32 %spec.select, i32 %8
  %.123 = select i1 %.not, i32 %.022.mux, i32 %.02228
  %.121 = select i1 %.not, i1 true, i1 %.02029
  %spec.select27 = select i1 %brmerge.not, i1 %or.cond.not, i1 false
  %.1 = xor i1 %.01930, %spec.select27
  %9 = add nuw i64 %.031, 1
  %exitcond.not = icmp eq i64 %9, %2
  br i1 %exitcond.not, label %._crit_edge, label %.lr.ph, !llvm.loop !120

._crit_edge:                                      ; preds = %.lr.ph, %4
  %.022.lcssa = phi i32 [ 0, %4 ], [ %.123, %.lr.ph ]
  %10 = load ptr, ptr %0, align 8, !tbaa !49
  call void @_Z22proj_context_errno_setP6pj_ctxi(ptr noundef %10, i32 noundef %.022.lcssa)
  ret i32 %.022.lcssa
}